target datalayout = "e-m:e-p270:32:32-p271:32:32-p272:64:64-i64:64-i128:128-f80:128-n8:16:32:64-S128"
target triple = "x86_64-pc-linux-gnu"

%class.QColor = type <{ i32, %"union.QColor::CT", [2 x i8] }>
%"union.QColor::CT" = type { %struct.anon }
%struct.anon = type { i16, i16, i16, i16, i16 }
%class.TFHandle = type <{ %class.Handle, i32, [4 x i8], ptr, i8, [7 x i8] }>
%class.Handle = type { %class.QGraphicsObject, %class.QColor, i32, ptr }
%class.QGraphicsObject = type { %class.QObject, %class.QGraphicsItem }
%class.QObject = type { ptr, %class.QScopedPointer }
%class.QScopedPointer = type { ptr }
%class.QGraphicsItem = type { ptr, %class.QScopedPointer.4 }
%class.QScopedPointer.4 = type { ptr }
%class.QBrush = type { %class.QScopedPointer.6 }
%class.QScopedPointer.6 = type { ptr }
%class.QRect = type { i32, i32, i32, i32 }

; Function Attrs: mustprogress nounwind uwtable
define linkonce_odr void @_ZN5QRectC2Eiiii(ptr noundef nonnull align 4 dereferenceable(16) %0, i32 noundef %1, i32 noundef %2, i32 noundef %3, i32 noundef %4) unnamed_addr #1 comdat align 2 {
  %6 = alloca ptr, align 8
  %7 = alloca i32, align 4
  %8 = alloca i32, align 4
  %9 = alloca i32, align 4
  %10 = alloca i32, align 4
  store ptr %0, ptr %6, align 8
  store i32 %1, ptr %7, align 4
  store i32 %2, ptr %8, align 4
  store i32 %3, ptr %9, align 4
  store i32 %4, ptr %10, align 4
  %11 = load ptr, ptr %6, align 8
  %12 = getelementptr inbounds %class.QRect, ptr %11, i32 0, i32 0
  %13 = load i32, ptr %7, align 4
  store i32 %13, ptr %12, align 4
  %14 = getelementptr inbounds %class.QRect, ptr %11, i32 0, i32 1
  %15 = load i32, ptr %8, align 4
  store i32 %15, ptr %14, align 4
  %16 = getelementptr inbounds %class.QRect, ptr %11, i32 0, i32 2
  %17 = load i32, ptr %7, align 4
  %18 = load i32, ptr %9, align 4
  %19 = add nsw i32 %17, %18
  %20 = sub nsw i32 %19, 1
  store i32 %20, ptr %16, align 4
  %21 = getelementptr inbounds %class.QRect, ptr %11, i32 0, i32 3
  %22 = load i32, ptr %8, align 4
  %23 = load i32, ptr %10, align 4
  %24 = add nsw i32 %22, %23
  %25 = sub nsw i32 %24, 1
  store i32 %25, ptr %21, align 4
  ret void
}

; Function Attrs: mustprogress uwtable
define linkonce_odr void @_ZN8QPainter8drawRectEiiii(ptr noundef nonnull align 8 dereferenceable(8) %0, i32 noundef %1, i32 noundef %2, i32 noundef %3, i32 noundef %4) #0 comdat align 2 {
  %6 = alloca ptr, align 8
  %7 = alloca i32, align 4
  %8 = alloca i32, align 4
  %9 = alloca i32, align 4
  %10 = alloca i32, align 4
  %11 = alloca %class.QRect, align 4
  store ptr %0, ptr %6, align 8
  store i32 %1, ptr %7, align 4
  store i32 %2, ptr %8, align 4
  store i32 %3, ptr %9, align 4
  store i32 %4, ptr %10, align 4
  %12 = load ptr, ptr %6, align 8
  %13 = load i32, ptr %7, align 4
  %14 = load i32, ptr %8, align 4
  %15 = load i32, ptr %9, align 4
  %16 = load i32, ptr %10, align 4
  call void @_ZN5QRectC2Eiiii(ptr noundef nonnull align 4 dereferenceable(16) %11, i32 noundef %13, i32 noundef %14, i32 noundef %15, i32 noundef %16) #8
  call void @_ZN8QPainter9drawRectsEPK5QRecti(ptr noundef nonnull align 8 dereferenceable(8) %12, ptr noundef %11, i32 noundef 1)
  ret void
}

; Function Attrs: mustprogress uwtable
define void @_ZN8TFHandle5paintEP8QPainterPK24QStyleOptionGraphicsItemP7QWidget(ptr noundef nonnull align 8 dereferenceable(81) %0, ptr noundef %1, ptr noundef %2, ptr noundef %3) unnamed_addr #0 align 2 personality ptr @__gxx_personality_v0 {
  %5 = alloca ptr, align 8
  %6 = alloca ptr, align 8
  %7 = alloca ptr, align 8
  %8 = alloca ptr, align 8
  %9 = alloca %class.QColor, align 4
  %10 = alloca %class.QBrush, align 8
  %11 = alloca %class.QColor, align 4
  %12 = alloca ptr, align 8
  %13 = alloca i32, align 4
  %14 = alloca %class.QBrush, align 8
  store ptr %0, ptr %5, align 8
  store ptr %1, ptr %6, align 8
  store ptr %2, ptr %7, align 8
  store ptr %3, ptr %8, align 8
  %15 = load ptr, ptr %5, align 8
  %16 = getelementptr inbounds %class.TFHandle, ptr %15, i32 0, i32 4
  %17 = load i8, ptr %16, align 8
  %18 = trunc i8 %17 to i1
  br i1 %18, label %19, label %29

19:                                               ; preds = %4
  %20 = load ptr, ptr %6, align 8
  %21 = getelementptr inbounds %class.Handle, ptr %15, i32 0, i32 1
  call void @_ZNK6QColor6darkerEi(ptr dead_on_unwind writable sret(%class.QColor) align 4 %9, ptr noundef nonnull align 4 dereferenceable(14) %21, i32 noundef 200) #8
  call void @_ZN8QPainter6setPenERK6QColor(ptr noundef nonnull align 8 dereferenceable(8) %20, ptr noundef nonnull align 4 dereferenceable(14) %9)
  %22 = load ptr, ptr %6, align 8
  %23 = getelementptr inbounds %class.Handle, ptr %15, i32 0, i32 1
  call void @_ZNK6QColor6darkerEi(ptr dead_on_unwind writable sret(%class.QColor) align 4 %11, ptr noundef nonnull align 4 dereferenceable(14) %23, i32 noundef 200) #8
  call void @_ZN6QBrushC1ERK6QColorN2Qt10BrushStyleE(ptr noundef nonnull align 8 dereferenceable(8) %10, ptr noundef nonnull align 4 dereferenceable(14) %11, i32 noundef 1)
  invoke void @_ZN8QPainter8setBrushERK6QBrush(ptr noundef nonnull align 8 dereferenceable(8) %22, ptr noundef nonnull align 8 dereferenceable(8) %10)
          to label %24 unwind label %25

24:                                               ; preds = %19
  call void @_ZN6QBrushD1Ev(ptr noundef nonnull align 8 dereferenceable(8) %10) #8
  br label %39

25:                                               ; preds = %19
  %26 = landingpad { ptr, i32 }
          cleanup
  %27 = extractvalue { ptr, i32 } %26, 0
  store ptr %27, ptr %12, align 8
  %28 = extractvalue { ptr, i32 } %26, 1
  store i32 %28, ptr %13, align 4
  call void @_ZN6QBrushD1Ev(ptr noundef nonnull align 8 dereferenceable(8) %10) #8
  br label %57

29:                                               ; preds = %4
  %30 = load ptr, ptr %6, align 8
  %31 = getelementptr inbounds %class.Handle, ptr %15, i32 0, i32 1
  call void @_ZN8QPainter6setPenERK6QColor(ptr noundef nonnull align 8 dereferenceable(8) %30, ptr noundef nonnull align 4 dereferenceable(14) %31)
  %32 = load ptr, ptr %6, align 8
  %33 = getelementptr inbounds %class.Handle, ptr %15, i32 0, i32 1
  call void @_ZN6QBrushC1ERK6QColorN2Qt10BrushStyleE(ptr noundef nonnull align 8 dereferenceable(8) %14, ptr noundef nonnull align 4 dereferenceable(14) %33, i32 noundef 1)
  invoke void @_ZN8QPainter8setBrushERK6QBrush(ptr noundef nonnull align 8 dereferenceable(8) %32, ptr noundef nonnull align 8 dereferenceable(8) %14)
          to label %34 unwind label %35

34:                                               ; preds = %29
  call void @_ZN6QBrushD1Ev(ptr noundef nonnull align 8 dereferenceable(8) %14) #8
  br label %39

35:                                               ; preds = %29
  %36 = landingpad { ptr, i32 }
          cleanup
  %37 = extractvalue { ptr, i32 } %36, 0
  store ptr %37, ptr %12, align 8
  %38 = extractvalue { ptr, i32 } %36, 1
  store i32 %38, ptr %13, align 4
  call void @_ZN6QBrushD1Ev(ptr noundef nonnull align 8 dereferenceable(8) %14) #8
  br label %57

39:                                               ; preds = %34, %24
  %40 = load ptr, ptr %6, align 8
  %41 = getelementptr inbounds %class.Handle, ptr %15, i32 0, i32 2
  %42 = load i32, ptr %41, align 8
  %43 = sub nsw i32 0, %42
  %44 = sitofp i32 %43 to double
  %45 = fdiv double %44, 2.000000e+00
  %46 = fptosi double %45 to i32
  %47 = getelementptr inbounds %class.Handle, ptr %15, i32 0, i32 2
  %48 = load i32, ptr %47, align 8
  %49 = sitofp i32 %48 to double
  %50 = fneg double %49
  %51 = fdiv double %50, 2.000000e+00
  %52 = fptosi double %51 to i32
  %53 = getelementptr inbounds %class.Handle, ptr %15, i32 0, i32 2
  %54 = load i32, ptr %53, align 8
  %55 = getelementptr inbounds %class.Handle, ptr %15, i32 0, i32 2
  %56 = load i32, ptr %55, align 8
  call void @_ZN8QPainter8drawRectEiiii(ptr noundef nonnull align 8 dereferenceable(8) %40, i32 noundef %46, i32 noundef %52, i32 noundef %54, i32 noundef %56)
  ret void

57:                                               ; preds = %35, %25
  %58 = load ptr, ptr %12, align 8
  %59 = load i32, ptr %13, align 4
  %60 = insertvalue { ptr, i32 } poison, ptr %58, 0
  %61 = insertvalue { ptr, i32 } %60, i32 %59, 1
  resume { ptr, i32 } %61
}